target datalayout = "e-m:e-p270:32:32-p271:32:32-p272:64:64-i64:64-i128:128-f80:128-n8:16:32:64-S128"
target triple = "x86_64-pc-linux-gnu"

%struct.archive_read = type { %struct.archive, ptr, i32, i64, i64, %struct.archive_read_client, [16 x %struct.archive_read_filter_bidder], ptr, i32, i64, i32, i32, [16 x %struct.archive_format_descriptor], ptr, ptr, ptr, %struct.anon }
%struct.archive = type { i32, i32, ptr, i32, ptr, i32, i32, ptr, %struct.archive_string, ptr, i32, i32, ptr, ptr, i64, i64, i64, i8, i64 }
%struct.archive_string = type { ptr, i64, i64 }
%struct.archive_read_client = type { ptr, ptr, ptr, ptr, ptr, ptr, i32, i32, i64, ptr }
%struct.archive_read_filter_bidder = type { ptr, ptr, ptr }
%struct.archive_format_descriptor = type { ptr, ptr, ptr, ptr, ptr, ptr, ptr, ptr, ptr, ptr, ptr }
%struct.anon = type { ptr, ptr, i32, ptr, ptr }
%struct._7zip = type { %struct._7z_stream_info, i32, i32, i64, i64, i64, i64, i64, i64, ptr, ptr, ptr, i64, i64, i64, i8, ptr, ptr, i64, i64, i64, i32, i64, i32, i32, i64, i64, i64, i64, %struct.lzma_stream, i32, %struct.bz_stream, i32, %struct.z_stream_s, i32, ptr, i32, i32, %struct.CPpmd7, %struct.CPpmd7z_RangeDec, %struct.IByteIn, %struct.anon.0, i32, i32, i64, [4 x i8], i64, i32, i32, i64, [3 x ptr], [3 x i64], [3 x i64], ptr, i64, i64, i64, [258 x i16], i8, i32, i32, i64, ptr, [64 x i8], i32 }
%struct._7z_stream_info = type { %struct._7z_pack_info, %struct._7z_coders_info, %struct._7z_substream_info }
%struct._7z_pack_info = type { i64, i64, ptr, %struct._7z_digests, ptr }
%struct._7z_digests = type { ptr, ptr }
%struct._7z_coders_info = type { i64, ptr, i64 }
%struct._7z_substream_info = type { i64, ptr, ptr, ptr }
%struct.lzma_stream = type { ptr, i64, i64, ptr, i64, i64, ptr, ptr, ptr, ptr, ptr, ptr, i64, i64, i64, i64, i32, i32 }
%struct.bz_stream = type { ptr, i32, i32, i32, ptr, i32, i32, i32, ptr, ptr, ptr, ptr }
%struct.z_stream_s = type { ptr, i32, i64, ptr, i32, i64, ptr, ptr, ptr, ptr, ptr, i32, i64, i64 }
%struct.CPpmd7 = type { ptr, ptr, ptr, i32, i32, i32, i32, i32, i32, i32, i32, i32, ptr, ptr, ptr, ptr, ptr, i32, [38 x i8], [128 x i8], [38 x i32], [256 x i8], [256 x i8], [256 x i8], %struct.CPpmd_See, [25 x [16 x %struct.CPpmd_See]], [128 x [64 x i16]] }
%struct.CPpmd_See = type { i16, i8, i8 }
%struct.CPpmd7z_RangeDec = type { %struct.IPpmd7_RangeDec, i32, i32, i32, i32, ptr }
%struct.IPpmd7_RangeDec = type { ptr, ptr, ptr }
%struct.IByteIn = type { ptr, ptr }
%struct.anon.0 = type { ptr, i64, i64, i64, ptr, i64, i64, i32 }

@.str.16 = private unnamed_addr constant [24 x i8] c"Malformed 7-Zip archive\00", align 1
@.str.19 = private unnamed_addr constant [25 x i8] c"Couldn't allocate memory\00", align 1
@.str.34 = private unnamed_addr constant [24 x i8] c"Malformed Header offset\00", align 1

; Function Attrs: nounwind uwtable
define internal i32 @decode_encoded_header_info(ptr noundef %0, ptr noundef %1) #0 {
  %3 = alloca i32, align 4
  %4 = alloca ptr, align 8
  %5 = alloca ptr, align 8
  %6 = alloca ptr, align 8
  %7 = alloca i32, align 4
  store ptr %0, ptr %4, align 8, !tbaa !9
  store ptr %1, ptr %5, align 8, !tbaa !134
  call void @llvm.lifetime.start.p0(i64 8, ptr %6) #12
  %8 = load ptr, ptr %4, align 8, !tbaa !9
  %9 = getelementptr inbounds nuw %struct.archive_read, ptr %8, i32 0, i32 13
  %10 = load ptr, ptr %9, align 8, !tbaa !51
  %11 = getelementptr inbounds nuw %struct.archive_format_descriptor, ptr %10, i32 0, i32 0
  %12 = load ptr, ptr %11, align 8, !tbaa !64
  store ptr %12, ptr %6, align 8, !tbaa !13
  %13 = call ptr @__errno_location() #15
  store i32 0, ptr %13, align 4, !tbaa !11
  %14 = load ptr, ptr %4, align 8, !tbaa !9
  %15 = load ptr, ptr %5, align 8, !tbaa !134
  %16 = call i32 @read_StreamsInfo(ptr noundef %14, ptr noundef %15)
  %17 = icmp slt i32 %16, 0
  br i1 %17, label %18, label %29

18:                                               ; preds = %2
  %19 = call ptr @__errno_location() #15
  %20 = load i32, ptr %19, align 4, !tbaa !11
  %21 = icmp eq i32 %20, 12
  br i1 %21, label %22, label %25

22:                                               ; preds = %18
  %23 = load ptr, ptr %4, align 8, !tbaa !9
  %24 = getelementptr inbounds nuw %struct.archive_read, ptr %23, i32 0, i32 0
  call void (ptr, i32, ptr, ...) @archive_set_error(ptr noundef %24, i32 noundef -1, ptr noundef @.str.19)
  br label %28

25:                                               ; preds = %18
  %26 = load ptr, ptr %4, align 8, !tbaa !9
  %27 = getelementptr inbounds nuw %struct.archive_read, ptr %26, i32 0, i32 0
  call void (ptr, i32, ptr, ...) @archive_set_error(ptr noundef %27, i32 noundef -1, ptr noundef @.str.16)
  br label %28

28:                                               ; preds = %25, %22
  store i32 -30, ptr %3, align 4
  store i32 1, ptr %7, align 4
  br label %91

29:                                               ; preds = %2
  %30 = load ptr, ptr %5, align 8, !tbaa !134
  %31 = getelementptr inbounds nuw %struct._7z_stream_info, ptr %30, i32 0, i32 0
  %32 = getelementptr inbounds nuw %struct._7z_pack_info, ptr %31, i32 0, i32 1
  %33 = load i64, ptr %32, align 8, !tbaa !136
  %34 = icmp eq i64 %33, 0
  br i1 %34, label %41, label %35

35:                                               ; preds = %29
  %36 = load ptr, ptr %5, align 8, !tbaa !134
  %37 = getelementptr inbounds nuw %struct._7z_stream_info, ptr %36, i32 0, i32 1
  %38 = getelementptr inbounds nuw %struct._7z_coders_info, ptr %37, i32 0, i32 0
  %39 = load i64, ptr %38, align 8, !tbaa !137
  %40 = icmp eq i64 %39, 0
  br i1 %40, label %41, label %44

41:                                               ; preds = %35, %29
  %42 = load ptr, ptr %4, align 8, !tbaa !9
  %43 = getelementptr inbounds nuw %struct.archive_read, ptr %42, i32 0, i32 0
  call void (ptr, i32, ptr, ...) @archive_set_error(ptr noundef %43, i32 noundef -1, ptr noundef @.str.16)
  store i32 -30, ptr %3, align 4
  store i32 1, ptr %7, align 4
  br label %91

44:                                               ; preds = %35
  %45 = load ptr, ptr %6, align 8, !tbaa !13
  %46 = getelementptr inbounds nuw %struct._7zip, ptr %45, i32 0, i32 5
  %47 = load i64, ptr %46, align 8, !tbaa !116
  %48 = load ptr, ptr %5, align 8, !tbaa !134
  %49 = getelementptr inbounds nuw %struct._7z_stream_info, ptr %48, i32 0, i32 0
  %50 = getelementptr inbounds nuw %struct._7z_pack_info, ptr %49, i32 0, i32 0
  %51 = load i64, ptr %50, align 8, !tbaa !138
  %52 = load ptr, ptr %5, align 8, !tbaa !134
  %53 = getelementptr inbounds nuw %struct._7z_stream_info, ptr %52, i32 0, i32 0
  %54 = getelementptr inbounds nuw %struct._7z_pack_info, ptr %53, i32 0, i32 2
  %55 = load ptr, ptr %54, align 8, !tbaa !139
  %56 = getelementptr inbounds i64, ptr %55, i64 0
  %57 = load i64, ptr %56, align 8, !tbaa !45
  %58 = add i64 %51, %57
  %59 = icmp ult i64 %47, %58
  br i1 %59, label %87, label %60

60:                                               ; preds = %44
  %61 = load ptr, ptr %5, align 8, !tbaa !134
  %62 = getelementptr inbounds nuw %struct._7z_stream_info, ptr %61, i32 0, i32 0
  %63 = getelementptr inbounds nuw %struct._7z_pack_info, ptr %62, i32 0, i32 0
  %64 = load i64, ptr %63, align 8, !tbaa !138
  %65 = load ptr, ptr %5, align 8, !tbaa !134
  %66 = getelementptr inbounds nuw %struct._7z_stream_info, ptr %65, i32 0, i32 0
  %67 = getelementptr inbounds nuw %struct._7z_pack_info, ptr %66, i32 0, i32 2
  %68 = load ptr, ptr %67, align 8, !tbaa !139
  %69 = getelementptr inbounds i64, ptr %68, i64 0
  %70 = load i64, ptr %69, align 8, !tbaa !45
  %71 = add i64 %64, %70
  %72 = icmp slt i64 %71, 0
  br i1 %72, label %87, label %73

73:                                               ; preds = %60
  %74 = load ptr, ptr %5, align 8, !tbaa !134
  %75 = getelementptr inbounds nuw %struct._7z_stream_info, ptr %74, i32 0, i32 0
  %76 = getelementptr inbounds nuw %struct._7z_pack_info, ptr %75, i32 0, i32 2
  %77 = load ptr, ptr %76, align 8, !tbaa !139
  %78 = getelementptr inbounds i64, ptr %77, i64 0
  %79 = load i64, ptr %78, align 8, !tbaa !45
  %80 = icmp eq i64 %79, 0
  br i1 %80, label %87, label %81

81:                                               ; preds = %73
  %82 = load ptr, ptr %5, align 8, !tbaa !134
  %83 = getelementptr inbounds nuw %struct._7z_stream_info, ptr %82, i32 0, i32 0
  %84 = getelementptr inbounds nuw %struct._7z_pack_info, ptr %83, i32 0, i32 0
  %85 = load i64, ptr %84, align 8, !tbaa !138
  %86 = icmp slt i64 %85, 0
  br i1 %86, label %87, label %90

87:                                               ; preds = %81, %73, %60, %44
  %88 = load ptr, ptr %4, align 8, !tbaa !9
  %89 = getelementptr inbounds nuw %struct.archive_read, ptr %88, i32 0, i32 0
  call void (ptr, i32, ptr, ...) @archive_set_error(ptr noundef %89, i32 noundef -1, ptr noundef @.str.34)
  store i32 -30, ptr %3, align 4
  store i32 1, ptr %7, align 4
  br label %91

90:                                               ; preds = %81
  store i32 0, ptr %3, align 4
  store i32 1, ptr %7, align 4
  br label %91

91:                                               ; preds = %90, %87, %41, %28
  call void @llvm.lifetime.end.p0(i64 8, ptr %6) #12
  %92 = load i32, ptr %3, align 4
  ret i32 %92
}