; Function Attrs: nounwind uwtable
define internal fastcc range(i32 -30, 1) i32 @decode_encoded_header_info(ptr noundef %0, ptr noundef captures(none) initializes((0, 104)) %1) unnamed_addr #0 {
  %3 = getelementptr inbounds nuw i8, ptr %0, i64 2072
  %4 = load ptr, ptr %3, align 8, !tbaa !41
  %5 = load ptr, ptr %4, align 8, !tbaa !55
  %6 = tail call ptr @__errno_location() #19
  store i32 0, ptr %6, align 4, !tbaa !76
  %7 = tail call fastcc i32 @read_StreamsInfo(ptr noundef %0, ptr noundef %1)
  %8 = icmp slt i32 %7, 0
  br i1 %8, label %9, label %12

9:                                                ; preds = %2
  %10 = load i32, ptr %6, align 4, !tbaa !76
  %11 = icmp eq i32 %10, 12
  %.str.19..str.16 = select i1 %11, ptr @.str.19, ptr @.str.16
  br label %.sink.split

12:                                               ; preds = %2
  %13 = getelementptr inbounds nuw i8, ptr %1, i64 8
  %14 = load i64, ptr %13, align 8, !tbaa !129
  %15 = icmp eq i64 %14, 0
  br i1 %15, label %.sink.split, label %16

16:                                               ; preds = %12
  %17 = getelementptr inbounds nuw i8, ptr %1, i64 48
  %18 = load i64, ptr %17, align 8, !tbaa !130
  %19 = icmp eq i64 %18, 0
  br i1 %19, label %.sink.split, label %20

20:                                               ; preds = %16
  %21 = getelementptr inbounds nuw i8, ptr %5, i64 128
  %22 = load i64, ptr %21, align 8, !tbaa !64
  %23 = load i64, ptr %1, align 8, !tbaa !131
  %24 = getelementptr inbounds nuw i8, ptr %1, i64 16
  %25 = load ptr, ptr %24, align 8, !tbaa !132
  %26 = load i64, ptr %25, align 8, !tbaa !38
  %27 = add i64 %26, %23
  %28 = icmp ult i64 %22, %27
  %29 = icmp slt i64 %27, 0
  %or.cond = or i1 %28, %29
  %30 = icmp eq i64 %26, 0
  %or.cond17 = or i1 %30, %or.cond
  %31 = icmp slt i64 %23, 0
  %or.cond18 = or i1 %31, %or.cond17
  br i1 %or.cond18, label %.sink.split, label %32

.sink.split:                                      ; preds = %20, %12, %16, %9
  %.str.19.sink = phi ptr [ %.str.19..str.16, %9 ], [ @.str.16, %16 ], [ @.str.16, %12 ], [ @.str.34, %20 ]
  tail call void (ptr, i32, ptr, ...) @archive_set_error(ptr noundef nonnull %0, i32 noundef -1, ptr noundef nonnull %.str.19.sink) #17
  br label %32

32:                                               ; preds = %.sink.split, %20
  %.0 = phi i32 [ 0, %20 ], [ -30, %.sink.split ]
  ret i32 %.0
}